target datalayout = "e-m:e-p270:32:32-p271:32:32-p272:64:64-i64:64-i128:128-f80:128-n8:16:32:64-S128"
target triple = "x86_64-pc-linux-gnu"

%struct.AVFilterContext = type { ptr, ptr, ptr, ptr, ptr, i32, ptr, ptr, i32, ptr, ptr, i32, i32, ptr, ptr, ptr, ptr, i32, ptr, i32, i32 }
%struct.DisplaceContext = type { ptr, [4 x i32], [4 x i32], i32, i32, i32, i32, [4 x i8], %struct.FFFrameSync, ptr }
%struct.FFFrameSync = type { ptr, ptr, i32, %struct.AVRational, i64, ptr, ptr, i32, i32, i8, i8, ptr, i32, i32, i32, i32 }
%struct.AVRational = type { i32, i32 }
%struct.AVFilterLink = type { ptr, ptr, ptr, ptr, i32, i32, i32, i32, %struct.AVRational, i32, i32, i32, %struct.AVChannelLayout, %struct.AVRational, ptr, i32, %struct.AVFilterFormatsConfig, %struct.AVFilterFormatsConfig }
%struct.AVChannelLayout = type { i32, i32, %union.anon.1, ptr }
%union.anon.1 = type { i64 }
%struct.AVFilterFormatsConfig = type { ptr, ptr, ptr, ptr, ptr }
%struct.AVPixFmtDescriptor = type { ptr, i8, i8, i8, i64, [4 x %struct.AVComponentDescriptor], ptr }
%struct.AVComponentDescriptor = type { i32, i32, i32, i32, i32 }

; Function Attrs: nounwind uwtable
define internal i32 @config_input(ptr noundef %0) #2 {
  %2 = alloca ptr, align 8
  %3 = alloca ptr, align 8
  %4 = alloca ptr, align 8
  %5 = alloca ptr, align 8
  %6 = alloca i32, align 4
  %7 = alloca i32, align 4
  store ptr %0, ptr %2, align 8, !tbaa !24
  call void @llvm.lifetime.start.p0(i64 8, ptr %3) #10
  %8 = load ptr, ptr %2, align 8, !tbaa !24
  %9 = getelementptr inbounds nuw %struct.AVFilterLink, ptr %8, i32 0, i32 2
  %10 = load ptr, ptr %9, align 8, !tbaa !26
  store ptr %10, ptr %3, align 8, !tbaa !4
  call void @llvm.lifetime.start.p0(i64 8, ptr %4) #10
  %11 = load ptr, ptr %3, align 8, !tbaa !4
  %12 = getelementptr inbounds nuw %struct.AVFilterContext, ptr %11, i32 0, i32 9
  %13 = load ptr, ptr %12, align 8, !tbaa !9
  store ptr %13, ptr %4, align 8, !tbaa !22
  call void @llvm.lifetime.start.p0(i64 8, ptr %5) #10
  %14 = load ptr, ptr %2, align 8, !tbaa !24
  %15 = getelementptr inbounds nuw %struct.AVFilterLink, ptr %14, i32 0, i32 5
  %16 = load i32, ptr %15, align 4, !tbaa !34
  %17 = call ptr @av_pix_fmt_desc_get(i32 noundef %16)
  store ptr %17, ptr %5, align 8, !tbaa !35
  call void @llvm.lifetime.start.p0(i64 4, ptr %6) #10
  call void @llvm.lifetime.start.p0(i64 4, ptr %7) #10
  %18 = load ptr, ptr %2, align 8, !tbaa !24
  %19 = getelementptr inbounds nuw %struct.AVFilterLink, ptr %18, i32 0, i32 5
  %20 = load i32, ptr %19, align 4, !tbaa !34
  %21 = call i32 @av_pix_fmt_count_planes(i32 noundef %20)
  %22 = load ptr, ptr %4, align 8, !tbaa !22
  %23 = getelementptr inbounds nuw %struct.DisplaceContext, ptr %22, i32 0, i32 4
  store i32 %21, ptr %23, align 4, !tbaa !37
  %24 = load ptr, ptr %5, align 8, !tbaa !35
  %25 = getelementptr inbounds nuw %struct.AVPixFmtDescriptor, ptr %24, i32 0, i32 1
  %26 = load i8, ptr %25, align 8, !tbaa !42
  %27 = zext i8 %26 to i32
  %28 = load ptr, ptr %4, align 8, !tbaa !22
  %29 = getelementptr inbounds nuw %struct.DisplaceContext, ptr %28, i32 0, i32 5
  store i32 %27, ptr %29, align 8, !tbaa !44
  %30 = load ptr, ptr %4, align 8, !tbaa !22
  %31 = getelementptr inbounds nuw %struct.DisplaceContext, ptr %30, i32 0, i32 4
  %32 = load i32, ptr %31, align 4, !tbaa !37
  %33 = icmp sgt i32 %32, 1
  br i1 %33, label %39, label %34

34:                                               ; preds = %1
  %35 = load ptr, ptr %4, align 8, !tbaa !22
  %36 = getelementptr inbounds nuw %struct.DisplaceContext, ptr %35, i32 0, i32 5
  %37 = load i32, ptr %36, align 8, !tbaa !44
  %38 = icmp eq i32 %37, 1
  br i1 %38, label %39, label %42

39:                                               ; preds = %34, %1
  %40 = load ptr, ptr %4, align 8, !tbaa !22
  %41 = getelementptr inbounds nuw %struct.DisplaceContext, ptr %40, i32 0, i32 9
  store ptr @displace_planar, ptr %41, align 8, !tbaa !45
  br label %45

42:                                               ; preds = %34
  %43 = load ptr, ptr %4, align 8, !tbaa !22
  %44 = getelementptr inbounds nuw %struct.DisplaceContext, ptr %43, i32 0, i32 9
  store ptr @displace_packed, ptr %44, align 8, !tbaa !45
  br label %45

45:                                               ; preds = %42, %39
  %46 = load ptr, ptr %5, align 8, !tbaa !35
  %47 = getelementptr inbounds nuw %struct.AVPixFmtDescriptor, ptr %46, i32 0, i32 4
  %48 = load i64, ptr %47, align 8, !tbaa !46
  %49 = and i64 %48, 32
  %50 = icmp ne i64 %49, 0
  br i1 %50, label %61, label %51

51:                                               ; preds = %45
  %52 = load ptr, ptr %4, align 8, !tbaa !22
  %53 = getelementptr inbounds nuw %struct.DisplaceContext, ptr %52, i32 0, i32 7
  %54 = getelementptr inbounds [4 x i8], ptr %53, i64 0, i64 2
  store i8 -128, ptr %54, align 2, !tbaa !47
  %55 = load ptr, ptr %4, align 8, !tbaa !22
  %56 = getelementptr inbounds nuw %struct.DisplaceContext, ptr %55, i32 0, i32 7
  %57 = getelementptr inbounds [4 x i8], ptr %56, i64 0, i64 1
  store i8 -128, ptr %57, align 1, !tbaa !47
  %58 = load ptr, ptr %4, align 8, !tbaa !22
  %59 = getelementptr inbounds nuw %struct.DisplaceContext, ptr %58, i32 0, i32 7
  %60 = getelementptr inbounds [4 x i8], ptr %59, i64 0, i64 0
  store i8 16, ptr %60, align 8, !tbaa !47
  br label %61

61:                                               ; preds = %51, %45
  %62 = load ptr, ptr %5, align 8, !tbaa !35
  %63 = call i32 @av_get_padded_bits_per_pixel(ptr noundef %62)
  %64 = ashr i32 %63, 3
  %65 = load ptr, ptr %4, align 8, !tbaa !22
  %66 = getelementptr inbounds nuw %struct.DisplaceContext, ptr %65, i32 0, i32 6
  store i32 %64, ptr %66, align 4, !tbaa !48
  %67 = load ptr, ptr %5, align 8, !tbaa !35
  %68 = getelementptr inbounds nuw %struct.AVPixFmtDescriptor, ptr %67, i32 0, i32 2
  %69 = load i8, ptr %68, align 1, !tbaa !49
  %70 = zext i8 %69 to i32
  store i32 %70, ptr %7, align 4, !tbaa !50
  %71 = load ptr, ptr %5, align 8, !tbaa !35
  %72 = getelementptr inbounds nuw %struct.AVPixFmtDescriptor, ptr %71, i32 0, i32 3
  %73 = load i8, ptr %72, align 2, !tbaa !51
  %74 = zext i8 %73 to i32
  store i32 %74, ptr %6, align 4, !tbaa !50
  %75 = load i32, ptr %6, align 4, !tbaa !50
  %76 = call i1 @llvm.is.constant.i32(i32 %75)
  br i1 %76, label %85, label %77

77:                                               ; preds = %61
  %78 = load ptr, ptr %2, align 8, !tbaa !24
  %79 = getelementptr inbounds nuw %struct.AVFilterLink, ptr %78, i32 0, i32 7
  %80 = load i32, ptr %79, align 4, !tbaa !52
  %81 = sub nsw i32 0, %80
  %82 = load i32, ptr %6, align 4, !tbaa !50
  %83 = ashr i32 %81, %82
  %84 = sub nsw i32 0, %83
  br label %95

85:                                               ; preds = %61
  %86 = load ptr, ptr %2, align 8, !tbaa !24
  %87 = getelementptr inbounds nuw %struct.AVFilterLink, ptr %86, i32 0, i32 7
  %88 = load i32, ptr %87, align 4, !tbaa !52
  %89 = load i32, ptr %6, align 4, !tbaa !50
  %90 = shl i32 1, %89
  %91 = add nsw i32 %88, %90
  %92 = sub nsw i32 %91, 1
  %93 = load i32, ptr %6, align 4, !tbaa !50
  %94 = ashr i32 %92, %93
  br label %95

95:                                               ; preds = %85, %77
  %96 = phi i32 [ %84, %77 ], [ %94, %85 ]
  %97 = load ptr, ptr %4, align 8, !tbaa !22
  %98 = getelementptr inbounds nuw %struct.DisplaceContext, ptr %97, i32 0, i32 2
  %99 = getelementptr inbounds [4 x i32], ptr %98, i64 0, i64 2
  store i32 %96, ptr %99, align 8, !tbaa !50
  %100 = load ptr, ptr %4, align 8, !tbaa !22
  %101 = getelementptr inbounds nuw %struct.DisplaceContext, ptr %100, i32 0, i32 2
  %102 = getelementptr inbounds [4 x i32], ptr %101, i64 0, i64 1
  store i32 %96, ptr %102, align 4, !tbaa !50
  %103 = load ptr, ptr %2, align 8, !tbaa !24
  %104 = getelementptr inbounds nuw %struct.AVFilterLink, ptr %103, i32 0, i32 7
  %105 = load i32, ptr %104, align 4, !tbaa !52
  %106 = load ptr, ptr %4, align 8, !tbaa !22
  %107 = getelementptr inbounds nuw %struct.DisplaceContext, ptr %106, i32 0, i32 2
  %108 = getelementptr inbounds [4 x i32], ptr %107, i64 0, i64 3
  store i32 %105, ptr %108, align 4, !tbaa !50
  %109 = load ptr, ptr %4, align 8, !tbaa !22
  %110 = getelementptr inbounds nuw %struct.DisplaceContext, ptr %109, i32 0, i32 2
  %111 = getelementptr inbounds [4 x i32], ptr %110, i64 0, i64 0
  store i32 %105, ptr %111, align 8, !tbaa !50
  %112 = load i32, ptr %7, align 4, !tbaa !50
  %113 = call i1 @llvm.is.constant.i32(i32 %112)
  br i1 %113, label %122, label %114

114:                                              ; preds = %95
  %115 = load ptr, ptr %2, align 8, !tbaa !24
  %116 = getelementptr inbounds nuw %struct.AVFilterLink, ptr %115, i32 0, i32 6
  %117 = load i32, ptr %116, align 8, !tbaa !53
  %118 = sub nsw i32 0, %117
  %119 = load i32, ptr %7, align 4, !tbaa !50
  %120 = ashr i32 %118, %119
  %121 = sub nsw i32 0, %120
  br label %132

122:                                              ; preds = %95
  %123 = load ptr, ptr %2, align 8, !tbaa !24
  %124 = getelementptr inbounds nuw %struct.AVFilterLink, ptr %123, i32 0, i32 6
  %125 = load i32, ptr %124, align 8, !tbaa !53
  %126 = load i32, ptr %7, align 4, !tbaa !50
  %127 = shl i32 1, %126
  %128 = add nsw i32 %125, %127
  %129 = sub nsw i32 %128, 1
  %130 = load i32, ptr %7, align 4, !tbaa !50
  %131 = ashr i32 %129, %130
  br label %132

132:                                              ; preds = %122, %114
  %133 = phi i32 [ %121, %114 ], [ %131, %122 ]
  %134 = load ptr, ptr %4, align 8, !tbaa !22
  %135 = getelementptr inbounds nuw %struct.DisplaceContext, ptr %134, i32 0, i32 1
  %136 = getelementptr inbounds [4 x i32], ptr %135, i64 0, i64 2
  store i32 %133, ptr %136, align 8, !tbaa !50
  %137 = load ptr, ptr %4, align 8, !tbaa !22
  %138 = getelementptr inbounds nuw %struct.DisplaceContext, ptr %137, i32 0, i32 1
  %139 = getelementptr inbounds [4 x i32], ptr %138, i64 0, i64 1
  store i32 %133, ptr %139, align 4, !tbaa !50
  %140 = load ptr, ptr %2, align 8, !tbaa !24
  %141 = getelementptr inbounds nuw %struct.AVFilterLink, ptr %140, i32 0, i32 6
  %142 = load i32, ptr %141, align 8, !tbaa !53
  %143 = load ptr, ptr %4, align 8, !tbaa !22
  %144 = getelementptr inbounds nuw %struct.DisplaceContext, ptr %143, i32 0, i32 1
  %145 = getelementptr inbounds [4 x i32], ptr %144, i64 0, i64 3
  store i32 %142, ptr %145, align 4, !tbaa !50
  %146 = load ptr, ptr %4, align 8, !tbaa !22
  %147 = getelementptr inbounds nuw %struct.DisplaceContext, ptr %146, i32 0, i32 1
  %148 = getelementptr inbounds [4 x i32], ptr %147, i64 0, i64 0
  store i32 %142, ptr %148, align 8, !tbaa !50
  call void @llvm.lifetime.end.p0(i64 4, ptr %7) #10
  call void @llvm.lifetime.end.p0(i64 4, ptr %6) #10
  call void @llvm.lifetime.end.p0(i64 8, ptr %5) #10
  call void @llvm.lifetime.end.p0(i64 8, ptr %4) #10
  call void @llvm.lifetime.end.p0(i64 8, ptr %3) #10
  ret i32 0
}