; Function Attrs: nounwind uwtable
define internal noundef i32 @config_input(ptr noundef readonly captures(none) %0) #2 {
  %2 = getelementptr inbounds nuw i8, ptr %0, i64 16
  %3 = load ptr, ptr %2, align 8, !tbaa !20
  %4 = getelementptr inbounds nuw i8, ptr %3, i64 72
  %5 = load ptr, ptr %4, align 8, !tbaa !4
  %6 = getelementptr inbounds nuw i8, ptr %0, i64 36
  %7 = load i32, ptr %6, align 4, !tbaa !29
  %8 = tail call ptr @av_pix_fmt_desc_get(i32 noundef %7) #8
  %9 = load i32, ptr %6, align 4, !tbaa !29
  %10 = tail call i32 @av_pix_fmt_count_planes(i32 noundef %9) #8
  %11 = getelementptr inbounds nuw i8, ptr %5, i64 44
  store i32 %10, ptr %11, align 4, !tbaa !30
  %12 = getelementptr inbounds nuw i8, ptr %8, i64 8
  %13 = load i8, ptr %12, align 8, !tbaa !35
  %14 = zext i8 %13 to i32
  %15 = getelementptr inbounds nuw i8, ptr %5, i64 48
  store i32 %14, ptr %15, align 8, !tbaa !37
  %16 = icmp sgt i32 %10, 1
  %17 = icmp eq i8 %13, 1
  %or.cond = select i1 %16, i1 true, i1 %17
  %spec.select = select i1 %or.cond, ptr @displace_planar, ptr @displace_packed
  %18 = getelementptr inbounds nuw i8, ptr %5, i64 160
  store ptr %spec.select, ptr %18, align 8, !tbaa !38
  %19 = getelementptr inbounds nuw i8, ptr %8, i64 16
  %20 = load i64, ptr %19, align 8, !tbaa !39
  %21 = and i64 %20, 32
  %.not = icmp eq i64 %21, 0
  br i1 %.not, label %22, label %26

22:                                               ; preds = %1
  %23 = getelementptr inbounds nuw i8, ptr %5, i64 56
  %24 = getelementptr inbounds nuw i8, ptr %5, i64 58
  store i8 -128, ptr %24, align 2, !tbaa !40
  %25 = getelementptr inbounds nuw i8, ptr %5, i64 57
  store i8 -128, ptr %25, align 1, !tbaa !40
  store i8 16, ptr %23, align 8, !tbaa !40
  br label %26

26:                                               ; preds = %22, %1
  %27 = tail call i32 @av_get_padded_bits_per_pixel(ptr noundef nonnull %8) #8
  %28 = ashr i32 %27, 3
  %29 = getelementptr inbounds nuw i8, ptr %5, i64 52
  store i32 %28, ptr %29, align 4, !tbaa !41
  %30 = getelementptr inbounds nuw i8, ptr %8, i64 9
  %31 = load i8, ptr %30, align 1, !tbaa !42
  %32 = getelementptr inbounds nuw i8, ptr %0, i64 44
  %33 = load i32, ptr %32, align 4, !tbaa !43
  %34 = sub nsw i32 0, %33
  %35 = getelementptr inbounds nuw i8, ptr %8, i64 10
  %36 = load i8, ptr %35, align 2, !tbaa !44
  %37 = zext nneg i8 %36 to i32
  %38 = ashr i32 %34, %37
  %39 = sub nsw i32 0, %38
  %40 = getelementptr inbounds nuw i8, ptr %5, i64 24
  %41 = getelementptr inbounds nuw i8, ptr %5, i64 32
  store i32 %39, ptr %41, align 8, !tbaa !45
  %42 = getelementptr inbounds nuw i8, ptr %5, i64 28
  store i32 %39, ptr %42, align 4, !tbaa !45
  %43 = getelementptr inbounds nuw i8, ptr %0, i64 44
  %44 = load i32, ptr %43, align 4, !tbaa !43
  %45 = getelementptr inbounds nuw i8, ptr %5, i64 36
  store i32 %44, ptr %45, align 4, !tbaa !45
  store i32 %44, ptr %40, align 8, !tbaa !45
  %46 = getelementptr inbounds nuw i8, ptr %0, i64 40
  %47 = load i32, ptr %46, align 8, !tbaa !46
  %48 = sub nsw i32 0, %47
  %49 = zext nneg i8 %31 to i32
  %50 = ashr i32 %48, %49
  %51 = sub nsw i32 0, %50
  %52 = getelementptr inbounds nuw i8, ptr %5, i64 8
  %53 = getelementptr inbounds nuw i8, ptr %5, i64 16
  store i32 %51, ptr %53, align 8, !tbaa !45
  %54 = getelementptr inbounds nuw i8, ptr %5, i64 12
  store i32 %51, ptr %54, align 4, !tbaa !45
  %55 = getelementptr inbounds nuw i8, ptr %0, i64 40
  %56 = load i32, ptr %55, align 8, !tbaa !46
  %57 = getelementptr inbounds nuw i8, ptr %5, i64 20
  store i32 %56, ptr %57, align 4, !tbaa !45
  store i32 %56, ptr %52, align 8, !tbaa !45
  ret i32 0
}